target datalayout = "e-m:e-p270:32:32-p271:32:32-p272:64:64-i64:64-i128:128-f80:128-n8:16:32:64-S128"
target triple = "x86_64-pc-linux-gnu"

%struct.CVodeMemRec = type { double, ptr, ptr, i32, i32, i32, double, double, ptr, i32, ptr, ptr, i32, ptr, i32, i32, double, double, ptr, i32, i32, i32, ptr, ptr, ptr, i32, i32, ptr, ptr, ptr, i32, double, i32, i32, double, ptr, ptr, i32, ptr, ptr, i32, i32, i32, double, ptr, ptr, [13 x ptr], ptr, ptr, ptr, ptr, ptr, [13 x ptr], ptr, ptr, ptr, ptr, [13 x ptr], ptr, ptr, ptr, ptr, ptr, i32, [13 x ptr], ptr, ptr, ptr, ptr, ptr, i32, double, i32, i32, i32, i32, i32, double, double, double, double, double, double, double, double, [14 x double], [6 x double], [13 x double], double, double, double, double, double, double, double, double, double, double, double, i32, ptr, i32, i64, i32, i32, i32, i32, i32, double, double, double, i64, i64, i64, i64, i64, i64, i64, i64, i64, ptr, i64, i64, ptr, i64, i64, i64, i64, i64, i64, i32, i64, i64, i64, i64, i64, i64, double, double, double, ptr, ptr, ptr, ptr, ptr, i32, i32, i64, double, double, double, i32, double, i32, i32, i32, i32, i32, i32, i32, i32, i32, i32, i32, i32, i32, i32, i32, i32, ptr, ptr, ptr, i32, [6 x [4 x double]], i32, i64, ptr, i32, ptr, ptr, double, double, double, ptr, ptr, ptr, double, double, i32, i32, i64, ptr, i32, i32, ptr, i32 }
%struct.CVadjMemRec = type { double, double, i32, i32, double, ptr, i32, ptr, i32, ptr, i32, ptr, i64, ptr, i64, i32, ptr, ptr, ptr, ptr, i32, i32, i32, i32, [13 x ptr], [13 x ptr], [13 x double], ptr, ptr, i64 }
%struct.CVodeBMemRec = type { i32, double, ptr, i32, i32, ptr, ptr, ptr, ptr, ptr, ptr, ptr, ptr, ptr, double, ptr, ptr }

@.str = private unnamed_addr constant [7 x i8] c"CVODEA\00", align 1
@.str.2 = private unnamed_addr constant [26 x i8] c"cvode_mem = NULL illegal.\00", align 1
@.str.3 = private unnamed_addr constant [55 x i8] c"Illegal attempt to call before calling CVodeAdjMalloc.\00", align 1
@.str.5 = private unnamed_addr constant [25 x i8] c"Illegal value for which.\00", align 1
@.str.13 = private unnamed_addr constant [20 x i8] c"CVodeSetQuadErrConB\00", align 1

; Function Attrs: nounwind uwtable
define i32 @CVodeSetQuadErrConB(ptr noundef %0, i32 noundef %1, i32 noundef %2) #0 {
  %4 = alloca i32, align 4
  %5 = alloca ptr, align 8
  %6 = alloca i32, align 4
  %7 = alloca i32, align 4
  %8 = alloca ptr, align 8
  %9 = alloca ptr, align 8
  %10 = alloca ptr, align 8
  %11 = alloca ptr, align 8
  %12 = alloca i32, align 4
  %13 = alloca i32, align 4
  store ptr %0, ptr %5, align 8, !tbaa !3
  store i32 %1, ptr %6, align 4, !tbaa !28
  store i32 %2, ptr %7, align 4, !tbaa !28
  call void @llvm.lifetime.start.p0(i64 8, ptr %8) #3
  call void @llvm.lifetime.start.p0(i64 8, ptr %9) #3
  call void @llvm.lifetime.start.p0(i64 8, ptr %10) #3
  call void @llvm.lifetime.start.p0(i64 8, ptr %11) #3
  call void @llvm.lifetime.start.p0(i64 4, ptr %12) #3
  %14 = load ptr, ptr %5, align 8, !tbaa !3
  %15 = icmp eq ptr %14, null
  br i1 %15, label %16, label %17

16:                                               ; preds = %3
  call void (ptr, i32, ptr, ptr, ptr, ...) @cvProcessError(ptr noundef null, i32 noundef -21, ptr noundef @.str, ptr noundef @.str.13, ptr noundef @.str.2)
  store i32 -21, ptr %4, align 4
  store i32 1, ptr %13, align 4
  br label %62

17:                                               ; preds = %3
  %18 = load ptr, ptr %5, align 8, !tbaa !3
  store ptr %18, ptr %8, align 8, !tbaa !7
  %19 = load ptr, ptr %8, align 8, !tbaa !7
  %20 = getelementptr inbounds nuw %struct.CVodeMemRec, ptr %19, i32 0, i32 195
  %21 = load i32, ptr %20, align 8, !tbaa !9
  %22 = icmp eq i32 %21, 0
  br i1 %22, label %23, label %25

23:                                               ; preds = %17
  %24 = load ptr, ptr %8, align 8, !tbaa !7
  call void (ptr, i32, ptr, ptr, ptr, ...) @cvProcessError(ptr noundef %24, i32 noundef -101, ptr noundef @.str, ptr noundef @.str.13, ptr noundef @.str.3)
  store i32 -101, ptr %4, align 4
  store i32 1, ptr %13, align 4
  br label %62

25:                                               ; preds = %17
  %26 = load ptr, ptr %8, align 8, !tbaa !7
  %27 = getelementptr inbounds nuw %struct.CVodeMemRec, ptr %26, i32 0, i32 194
  %28 = load ptr, ptr %27, align 8, !tbaa !21
  store ptr %28, ptr %9, align 8, !tbaa !22
  %29 = load i32, ptr %6, align 4, !tbaa !28
  %30 = load ptr, ptr %9, align 8, !tbaa !22
  %31 = getelementptr inbounds nuw %struct.CVadjMemRec, ptr %30, i32 0, i32 6
  %32 = load i32, ptr %31, align 8, !tbaa !29
  %33 = icmp sge i32 %29, %32
  br i1 %33, label %34, label %36

34:                                               ; preds = %25
  %35 = load ptr, ptr %8, align 8, !tbaa !7
  call void (ptr, i32, ptr, ptr, ptr, ...) @cvProcessError(ptr noundef %35, i32 noundef -22, ptr noundef @.str, ptr noundef @.str.13, ptr noundef @.str.5)
  store i32 -22, ptr %4, align 4
  store i32 1, ptr %13, align 4
  br label %62

36:                                               ; preds = %25
  %37 = load ptr, ptr %9, align 8, !tbaa !22
  %38 = getelementptr inbounds nuw %struct.CVadjMemRec, ptr %37, i32 0, i32 5
  %39 = load ptr, ptr %38, align 8, !tbaa !30
  store ptr %39, ptr %10, align 8, !tbaa !31
  br label %40

40:                                               ; preds = %50, %36
  %41 = load ptr, ptr %10, align 8, !tbaa !31
  %42 = icmp ne ptr %41, null
  br i1 %42, label %43, label %54

43:                                               ; preds = %40
  %44 = load i32, ptr %6, align 4, !tbaa !28
  %45 = load ptr, ptr %10, align 8, !tbaa !31
  %46 = getelementptr inbounds nuw %struct.CVodeBMemRec, ptr %45, i32 0, i32 0
  %47 = load i32, ptr %46, align 8, !tbaa !32
  %48 = icmp eq i32 %44, %47
  br i1 %48, label %49, label %50

49:                                               ; preds = %43
  br label %54

50:                                               ; preds = %43
  %51 = load ptr, ptr %10, align 8, !tbaa !31
  %52 = getelementptr inbounds nuw %struct.CVodeBMemRec, ptr %51, i32 0, i32 16
  %53 = load ptr, ptr %52, align 8, !tbaa !34
  store ptr %53, ptr %10, align 8, !tbaa !31
  br label %40, !llvm.loop !48

54:                                               ; preds = %49, %40
  %55 = load ptr, ptr %10, align 8, !tbaa !31
  %56 = getelementptr inbounds nuw %struct.CVodeBMemRec, ptr %55, i32 0, i32 2
  %57 = load ptr, ptr %56, align 8, !tbaa !37
  store ptr %57, ptr %11, align 8, !tbaa !3
  %58 = load ptr, ptr %11, align 8, !tbaa !3
  %59 = load i32, ptr %7, align 4, !tbaa !28
  %60 = call i32 @CVodeSetQuadErrCon(ptr noundef %58, i32 noundef %59)
  store i32 %60, ptr %12, align 4, !tbaa !28
  %61 = load i32, ptr %12, align 4, !tbaa !28
  store i32 %61, ptr %4, align 4
  store i32 1, ptr %13, align 4
  br label %62

62:                                               ; preds = %54, %34, %23, %16
  call void @llvm.lifetime.end.p0(i64 4, ptr %12) #3
  call void @llvm.lifetime.end.p0(i64 8, ptr %11) #3
  call void @llvm.lifetime.end.p0(i64 8, ptr %10) #3
  call void @llvm.lifetime.end.p0(i64 8, ptr %9) #3
  call void @llvm.lifetime.end.p0(i64 8, ptr %8) #3
  %63 = load i32, ptr %4, align 4
  ret i32 %63
}